; Function Attrs: mustprogress uwtable
define void @_ZN8QuantLib18YieldTermStructure6updateEv(ptr noundef nonnull align 8 dereferenceable(152) %this) unnamed_addr #5 align 2 personality ptr @__gxx_personality_v0 {
entry:
  %newReference = alloca %"class.QuantLib::Date", align 8
  %ref.tmp = alloca %"class.QuantLib::Date", align 8
  tail call void @_ZN8QuantLib13TermStructure6updateEv(ptr noundef nonnull align 8 dereferenceable(64) %this)
  call void @llvm.lifetime.start.p0(i64 8, ptr nonnull %newReference) #25
  call void @_ZN8QuantLib4DateC1Ev(ptr noundef nonnull align 8 dereferenceable(8) %newReference)
  %vtable = load ptr, ptr %this, align 8, !tbaa !10
  %vfn = getelementptr inbounds i8, ptr %vtable, i64 40
  %0 = load ptr, ptr %vfn, align 8
  %call = invoke noundef nonnull align 8 dereferenceable(8) ptr %0(ptr noundef nonnull align 8 dereferenceable(64) %this)
          to label %invoke.cont unwind label %lpad

invoke.cont:                                      ; preds = %entry
  %1 = load i64, ptr %call, align 8, !tbaa !29
  store i64 %1, ptr %newReference, align 8, !tbaa !29
  %latestReference_ = getelementptr inbounds nuw i8, ptr %this, i64 144
  %2 = load i64, ptr %latestReference_, align 8, !tbaa !83
  %cmp.i.not = icmp eq i64 %1, %2
  br i1 %cmp.i.not, label %cleanup, label %if.then

if.then:                                          ; preds = %invoke.cont
  invoke void @_ZN8QuantLib18YieldTermStructure8setJumpsERKNS_4DateE(ptr noundef nonnull align 8 dereferenceable(152) %this, ptr noundef nonnull align 8 dereferenceable(8) %newReference)
          to label %cleanup unwind label %lpad

lpad:                                             ; preds = %if.then, %entry
  %3 = landingpad { ptr, i32 }
          cleanup
          catch ptr @_ZTIN8QuantLib5ErrorE
  %4 = extractvalue { ptr, i32 } %3, 1
  %5 = call i32 @llvm.eh.typeid.for.p0(ptr nonnull @_ZTIN8QuantLib5ErrorE) #25
  %matches = icmp eq i32 %4, %5
  br i1 %matches, label %catch, label %ehcleanup13

catch:                                            ; preds = %lpad
  %6 = extractvalue { ptr, i32 } %3, 0
  %7 = call ptr @__cxa_begin_catch(ptr %6) #25
  call void @llvm.lifetime.start.p0(i64 8, ptr nonnull %ref.tmp) #25
  invoke void @_ZN8QuantLib4DateC1Ev(ptr noundef nonnull align 8 dereferenceable(8) %ref.tmp)
          to label %invoke.cont6 unwind label %lpad5

invoke.cont6:                                     ; preds = %catch
  %8 = load i64, ptr %newReference, align 8, !tbaa !83
  %9 = load i64, ptr %ref.tmp, align 8, !tbaa !83
  %cmp.i3 = icmp eq i64 %8, %9
  call void @llvm.lifetime.end.p0(i64 8, ptr nonnull %ref.tmp) #25
  br i1 %cmp.i3, label %if.then9, label %if.else

if.then9:                                         ; preds = %invoke.cont6
  call void @__cxa_end_catch()
  br label %cleanup

lpad5:                                            ; preds = %catch
  %10 = landingpad { ptr, i32 }
          cleanup
  call void @llvm.lifetime.end.p0(i64 8, ptr nonnull %ref.tmp) #25
  br label %ehcleanup

if.else:                                          ; preds = %invoke.cont6
  invoke void @__cxa_rethrow() #28
          to label %unreachable unwind label %lpad10

lpad10:                                           ; preds = %if.else
  %11 = landingpad { ptr, i32 }
          cleanup
  br label %ehcleanup

ehcleanup:                                        ; preds = %lpad10, %lpad5
  %.pn = phi { ptr, i32 } [ %11, %lpad10 ], [ %10, %lpad5 ]
  invoke void @__cxa_end_catch()
          to label %ehcleanup13 unwind label %terminate.lpad

cleanup:                                          ; preds = %if.then, %invoke.cont, %if.then9
  call void @llvm.lifetime.end.p0(i64 8, ptr nonnull %newReference) #25
  ret void

ehcleanup13:                                      ; preds = %ehcleanup, %lpad
  %lpad.val16.merged = phi { ptr, i32 } [ %3, %lpad ], [ %.pn, %ehcleanup ]
  call void @llvm.lifetime.end.p0(i64 8, ptr nonnull %newReference) #25
  resume { ptr, i32 } %lpad.val16.merged

terminate.lpad:                                   ; preds = %ehcleanup
  %12 = landingpad { ptr, i32 }
          catch ptr null
  %13 = extractvalue { ptr, i32 } %12, 0
  call void @__clang_call_terminate(ptr %13) #26
  unreachable

unreachable:                                      ; preds = %if.else
  unreachable
}